target datalayout = "e-m:e-p270:32:32-p271:32:32-p272:64:64-i64:64-i128:128-f80:128-n8:16:32:64-S128"
target triple = "x86_64-unknown-linux-gnu"

; Function Attrs: mustprogress nounwind uwtable
define hidden noundef i32 @_Z18bcdec__extend_signii(i32 noundef %val, i32 noundef %bits) #4 {
entry:
  %val.addr = alloca i32, align 4
  %bits.addr = alloca i32, align 4
  store i32 %val, ptr %val.addr, align 4
  store i32 %bits, ptr %bits.addr, align 4
  %0 = load i32, ptr %val.addr, align 4
  %1 = load i32, ptr %bits.addr, align 4
  %sub = sub nsw i32 32, %1
  %shl = shl i32 %0, %sub
  %2 = load i32, ptr %bits.addr, align 4
  %sub1 = sub nsw i32 32, %2
  %shr = ashr i32 %shl, %sub1
  ret i32 %shr
}

; Function Attrs: mustprogress nounwind uwtable
define hidden noundef i32 @_Z24bcdec__transform_inverseiiii(i32 noundef %val, i32 noundef %a0, i32 noundef %bits, i32 noundef %isSigned) #4 {
entry:
  %val.addr = alloca i32, align 4
  %a0.addr = alloca i32, align 4
  %bits.addr = alloca i32, align 4
  %isSigned.addr = alloca i32, align 4
  store i32 %val, ptr %val.addr, align 4
  store i32 %a0, ptr %a0.addr, align 4
  store i32 %bits, ptr %bits.addr, align 4
  store i32 %isSigned, ptr %isSigned.addr, align 4
  %0 = load i32, ptr %val.addr, align 4
  %1 = load i32, ptr %a0.addr, align 4
  %add = add nsw i32 %0, %1
  %2 = load i32, ptr %bits.addr, align 4
  %shl = shl i32 1, %2
  %sub = sub nsw i32 %shl, 1
  %and = and i32 %add, %sub
  store i32 %and, ptr %val.addr, align 4
  %3 = load i32, ptr %isSigned.addr, align 4
  %tobool = icmp ne i32 %3, 0
  br i1 %tobool, label %if.then, label %if.end

if.then:                                          ; preds = %entry
  %4 = load i32, ptr %val.addr, align 4
  %5 = load i32, ptr %bits.addr, align 4
  %call = call noundef i32 @_Z18bcdec__extend_signii(i32 noundef %4, i32 noundef %5)
  store i32 %call, ptr %val.addr, align 4
  br label %if.end

if.end:                                           ; preds = %if.then, %entry
  %6 = load i32, ptr %val.addr, align 4
  ret i32 %6
}