; Function Attrs: mustprogress nofree norecurse nosync nounwind willreturn memory(none) uwtable
define hidden noundef i32 @_Z24bcdec__transform_inverseiiii(i32 noundef %val, i32 noundef %a0, i32 noundef %bits, i32 noundef %isSigned) local_unnamed_addr #8 {
entry:
  %add = add nsw i32 %a0, %val
  %notmask = shl nsw i32 -1, %bits
  %sub = xor i32 %notmask, -1
  %and = and i32 %add, %sub
  %tobool.not = icmp eq i32 %isSigned, 0
  %sub.i = sub nsw i32 32, %bits
  %shl.i = shl i32 %add, %sub.i
  %shr.i = ashr exact i32 %shl.i, %sub.i
  %val.addr.0 = select i1 %tobool.not, i32 %and, i32 %shr.i
  ret i32 %val.addr.0
}